target datalayout = "e-m:e-p270:32:32-p271:32:32-p272:64:64-i64:64-i128:128-f80:128-n8:16:32:64-S128"
target triple = "x86_64-pc-linux-gnu"

; Function Attrs: nounwind uwtable
define i32 @evutil_socket_finished_connecting_(i32 noundef %0) #0 {
  %2 = alloca i32, align 4
  %3 = alloca i32, align 4
  %4 = alloca i32, align 4
  %5 = alloca i32, align 4
  %6 = alloca i32, align 4
  store i32 %0, ptr %3, align 4
  call void @llvm.lifetime.start.p0(i64 4, ptr %4) #11
  call void @llvm.lifetime.start.p0(i64 4, ptr %5) #11
  store i32 4, ptr %5, align 4
  %7 = load i32, ptr %3, align 4
  %8 = call i32 @getsockopt(i32 noundef %7, i32 noundef 1, i32 noundef 4, ptr noundef %4, ptr noundef %5) #11
  %9 = icmp slt i32 %8, 0
  br i1 %9, label %10, label %11

10:                                               ; preds = %1
  store i32 -1, ptr %2, align 4
  store i32 1, ptr %6, align 4
  br label %28

11:                                               ; preds = %1
  %12 = load i32, ptr %4, align 4
  %13 = icmp ne i32 %12, 0
  br i1 %13, label %14, label %27

14:                                               ; preds = %11
  %15 = load i32, ptr %4, align 4
  %16 = icmp eq i32 %15, 4
  br i1 %16, label %20, label %17

17:                                               ; preds = %14
  %18 = load i32, ptr %4, align 4
  %19 = icmp eq i32 %18, 115
  br i1 %19, label %20, label %21

20:                                               ; preds = %17, %14
  store i32 0, ptr %2, align 4
  store i32 1, ptr %6, align 4
  br label %28

21:                                               ; preds = %17
  br label %22

22:                                               ; preds = %21
  %23 = load i32, ptr %4, align 4
  %24 = call ptr @__errno_location() #12
  store i32 %23, ptr %24, align 4
  br label %25

25:                                               ; preds = %22
  br label %26

26:                                               ; preds = %25
  store i32 -1, ptr %2, align 4
  store i32 1, ptr %6, align 4
  br label %28

27:                                               ; preds = %11
  store i32 1, ptr %2, align 4
  store i32 1, ptr %6, align 4
  br label %28

28:                                               ; preds = %27, %26, %20, %10
  call void @llvm.lifetime.end.p0(i64 4, ptr %5) #11
  call void @llvm.lifetime.end.p0(i64 4, ptr %4) #11
  %29 = load i32, ptr %2, align 4
  ret i32 %29
}