; Function Attrs: nounwind uwtable
define range(i32 -1, 2) i32 @evutil_socket_finished_connecting_(i32 noundef %0) local_unnamed_addr #0 {
  %2 = alloca i32, align 4
  %3 = alloca i32, align 4
  call void @llvm.lifetime.start.p0(i64 4, ptr nonnull %2) #30
  call void @llvm.lifetime.start.p0(i64 4, ptr nonnull %3) #30
  store i32 4, ptr %3, align 4
  %4 = call i32 @getsockopt(i32 noundef %0, i32 noundef 1, i32 noundef 4, ptr noundef nonnull %2, ptr noundef nonnull %3) #30
  %5 = icmp slt i32 %4, 0
  br i1 %5, label %10, label %6

6:                                                ; preds = %1
  %7 = load i32, ptr %2, align 4
  switch i32 %7, label %8 [
    i32 0, label %10
    i32 115, label %.fold.split
    i32 4, label %.fold.split
  ]

8:                                                ; preds = %6
  %9 = tail call ptr @__errno_location() #31
  store i32 %7, ptr %9, align 4
  br label %10

.fold.split:                                      ; preds = %6, %6
  br label %10

10:                                               ; preds = %6, %.fold.split, %1, %8
  %.0 = phi i32 [ -1, %8 ], [ -1, %1 ], [ 1, %6 ], [ 0, %.fold.split ]
  call void @llvm.lifetime.end.p0(i64 4, ptr nonnull %3) #30
  call void @llvm.lifetime.end.p0(i64 4, ptr nonnull %2) #30
  ret i32 %.0
}